target datalayout = "e-m:e-p270:32:32-p271:32:32-p272:64:64-i64:64-i128:128-f80:128-n8:16:32:64-S128"
target triple = "x86_64-pc-linux-gnu"

%struct.Map_NodeStruct_t_ = type { ptr, ptr, i32, i32, i32, i32, [3 x i32], [3 x float], float, ptr, ptr, ptr, ptr, [2 x %struct.Map_TimeStruct_t_], [2 x %struct.Map_TimeStruct_t_], [2 x ptr], ptr, ptr, ptr }
%struct.Map_TimeStruct_t_ = type { float, float, float }
%struct.Map_ManStruct_t_ = type { ptr, i32, ptr, i32, ptr, i32, i32, ptr, ptr, ptr, ptr, ptr, ptr, ptr, ptr, i32, i32, i32, i32, float, float, float, float, i32, i32, float, i32, i32, i32, i32, ptr, [6 x [2 x i32]], [10 x [32 x i32]], [32 x i32], [32 x i32], ptr, ptr, ptr, ptr, ptr, ptr, i32, i32, i32, i32, i32, i32, i64, i64, i64, i64, i64, i64, i64, i64, i64, i64, i64 }
%struct.Map_CutStruct_t_ = type { ptr, ptr, ptr, [6 x ptr], i32, i8, i8, i8, i8, [2 x %struct.Map_MatchStruct_t_] }
%struct.Map_MatchStruct_t_ = type { ptr, i32, i32, ptr, %struct.Map_TimeStruct_t_, float }

; Function Attrs: nounwind uwtable
define float @Map_MappingGetAreaFlow(ptr noundef %0) #0 {
  %2 = alloca ptr, align 8
  %3 = alloca ptr, align 8
  %4 = alloca ptr, align 8
  %5 = alloca float, align 4
  %6 = alloca i32, align 4
  %7 = alloca i32, align 4
  store ptr %0, ptr %2, align 8, !tbaa !20
  call void @llvm.lifetime.start.p0(i64 8, ptr %3) #4
  call void @llvm.lifetime.start.p0(i64 8, ptr %4) #4
  call void @llvm.lifetime.start.p0(i64 4, ptr %5) #4
  store float 0.000000e+00, ptr %5, align 4, !tbaa !70
  call void @llvm.lifetime.start.p0(i64 4, ptr %6) #4
  call void @llvm.lifetime.start.p0(i64 4, ptr %7) #4
  store i32 0, ptr %7, align 4, !tbaa !10
  br label %8

8:                                                ; preds = %77, %1
  %9 = load i32, ptr %7, align 4, !tbaa !10
  %10 = load ptr, ptr %2, align 8, !tbaa !20
  %11 = getelementptr inbounds nuw %struct.Map_ManStruct_t_, ptr %10, i32 0, i32 5
  %12 = load i32, ptr %11, align 8, !tbaa !21
  %13 = icmp slt i32 %9, %12
  br i1 %13, label %14, label %80

14:                                               ; preds = %8
  %15 = load ptr, ptr %2, align 8, !tbaa !20
  %16 = getelementptr inbounds nuw %struct.Map_ManStruct_t_, ptr %15, i32 0, i32 4
  %17 = load ptr, ptr %16, align 8, !tbaa !32
  %18 = load i32, ptr %7, align 4, !tbaa !10
  %19 = sext i32 %18 to i64
  %20 = getelementptr inbounds ptr, ptr %17, i64 %19
  %21 = load ptr, ptr %20, align 8, !tbaa !3
  %22 = ptrtoint ptr %21 to i64
  %23 = and i64 %22, -2
  %24 = inttoptr i64 %23 to ptr
  store ptr %24, ptr %3, align 8, !tbaa !3
  %25 = load ptr, ptr %3, align 8, !tbaa !3
  %26 = call i32 @Map_NodeIsAnd(ptr noundef %25)
  %27 = icmp ne i32 %26, 0
  br i1 %27, label %29, label %28

28:                                               ; preds = %14
  br label %77

29:                                               ; preds = %14
  %30 = load ptr, ptr %2, align 8, !tbaa !20
  %31 = getelementptr inbounds nuw %struct.Map_ManStruct_t_, ptr %30, i32 0, i32 4
  %32 = load ptr, ptr %31, align 8, !tbaa !32
  %33 = load i32, ptr %7, align 4, !tbaa !10
  %34 = sext i32 %33 to i64
  %35 = getelementptr inbounds ptr, ptr %32, i64 %34
  %36 = load ptr, ptr %35, align 8, !tbaa !3
  %37 = ptrtoint ptr %36 to i64
  %38 = and i64 %37, 1
  %39 = trunc i64 %38 to i32
  %40 = icmp ne i32 %39, 0
  %41 = xor i1 %40, true
  %42 = zext i1 %41 to i32
  store i32 %42, ptr %6, align 4, !tbaa !10
  %43 = load ptr, ptr %3, align 8, !tbaa !3
  %44 = getelementptr inbounds nuw %struct.Map_NodeStruct_t_, ptr %43, i32 0, i32 15
  %45 = load i32, ptr %6, align 4, !tbaa !10
  %46 = sext i32 %45 to i64
  %47 = getelementptr inbounds [2 x ptr], ptr %44, i64 0, i64 %46
  %48 = load ptr, ptr %47, align 8, !tbaa !66
  store ptr %48, ptr %4, align 8, !tbaa !66
  %49 = load ptr, ptr %4, align 8, !tbaa !66
  %50 = icmp eq ptr %49, null
  br i1 %50, label %51, label %62

51:                                               ; preds = %29
  %52 = load i32, ptr %6, align 4, !tbaa !10
  %53 = icmp ne i32 %52, 0
  %54 = xor i1 %53, true
  %55 = zext i1 %54 to i32
  store i32 %55, ptr %6, align 4, !tbaa !10
  %56 = load ptr, ptr %3, align 8, !tbaa !3
  %57 = getelementptr inbounds nuw %struct.Map_NodeStruct_t_, ptr %56, i32 0, i32 15
  %58 = load i32, ptr %6, align 4, !tbaa !10
  %59 = sext i32 %58 to i64
  %60 = getelementptr inbounds [2 x ptr], ptr %57, i64 0, i64 %59
  %61 = load ptr, ptr %60, align 8, !tbaa !66
  store ptr %61, ptr %4, align 8, !tbaa !66
  br label %62

62:                                               ; preds = %51, %29
  %63 = load ptr, ptr %3, align 8, !tbaa !3
  %64 = getelementptr inbounds nuw %struct.Map_NodeStruct_t_, ptr %63, i32 0, i32 15
  %65 = load i32, ptr %6, align 4, !tbaa !10
  %66 = sext i32 %65 to i64
  %67 = getelementptr inbounds [2 x ptr], ptr %64, i64 0, i64 %66
  %68 = load ptr, ptr %67, align 8, !tbaa !66
  %69 = getelementptr inbounds nuw %struct.Map_CutStruct_t_, ptr %68, i32 0, i32 9
  %70 = load i32, ptr %6, align 4, !tbaa !10
  %71 = sext i32 %70 to i64
  %72 = getelementptr inbounds [2 x %struct.Map_MatchStruct_t_], ptr %69, i64 0, i64 %71
  %73 = getelementptr inbounds nuw %struct.Map_MatchStruct_t_, ptr %72, i32 0, i32 5
  %74 = load float, ptr %73, align 4, !tbaa !71
  %75 = load float, ptr %5, align 4, !tbaa !70
  %76 = fadd float %75, %74
  store float %76, ptr %5, align 4, !tbaa !70
  br label %77

77:                                               ; preds = %62, %28
  %78 = load i32, ptr %7, align 4, !tbaa !10
  %79 = add nsw i32 %78, 1
  store i32 %79, ptr %7, align 4, !tbaa !10
  br label %8, !llvm.loop !72

80:                                               ; preds = %8
  %81 = load float, ptr %5, align 4, !tbaa !70
  call void @llvm.lifetime.end.p0(i64 4, ptr %7) #4
  call void @llvm.lifetime.end.p0(i64 4, ptr %6) #4
  call void @llvm.lifetime.end.p0(i64 4, ptr %5) #4
  call void @llvm.lifetime.end.p0(i64 8, ptr %4) #4
  call void @llvm.lifetime.end.p0(i64 8, ptr %3) #4
  ret float %81
}