; Function Attrs: nounwind uwtable
define float @Map_MappingGetAreaFlow(ptr noundef readonly captures(none) %0) local_unnamed_addr #0 {
  %2 = getelementptr inbounds nuw i8, ptr %0, i64 40
  %3 = load i32, ptr %2, align 8, !tbaa !16
  %4 = icmp sgt i32 %3, 0
  br i1 %4, label %.lr.ph, label %._crit_edge

.lr.ph:                                           ; preds = %1
  %5 = getelementptr inbounds nuw i8, ptr %0, i64 32
  br label %6

6:                                                ; preds = %.lr.ph, %31
  %indvars.iv = phi i64 [ 0, %.lr.ph ], [ %indvars.iv.next, %31 ]
  %.01921 = phi float [ 0.000000e+00, %.lr.ph ], [ %.1, %31 ]
  %7 = load ptr, ptr %5, align 8, !tbaa !30
  %8 = getelementptr inbounds nuw ptr, ptr %7, i64 %indvars.iv
  %9 = load ptr, ptr %8, align 8, !tbaa !31
  %10 = ptrtoint ptr %9 to i64
  %11 = and i64 %10, -2
  %12 = inttoptr i64 %11 to ptr
  %13 = tail call i32 @Map_NodeIsAnd(ptr noundef %12) #16
  %.not = icmp eq i32 %13, 0
  br i1 %.not, label %31, label %14

14:                                               ; preds = %6
  %15 = load ptr, ptr %5, align 8, !tbaa !30
  %16 = getelementptr inbounds nuw ptr, ptr %15, i64 %indvars.iv
  %17 = load ptr, ptr %16, align 8, !tbaa !31
  %18 = ptrtoint ptr %17 to i64
  %19 = and i64 %18, 1
  %20 = xor i64 %19, 1
  %21 = getelementptr inbounds nuw i8, ptr %12, i64 144
  %22 = getelementptr inbounds nuw [2 x ptr], ptr %21, i64 0, i64 %20
  %23 = load ptr, ptr %22, align 8, !tbaa !66
  %24 = icmp eq ptr %23, null
  %spec.select = select i1 %24, i64 %19, i64 %20
  %25 = getelementptr inbounds nuw [2 x ptr], ptr %21, i64 0, i64 %spec.select
  %26 = load ptr, ptr %25, align 8, !tbaa !66
  %.idx = mul nuw nsw i64 %spec.select, 40
  %27 = getelementptr i8, ptr %26, i64 116
  %28 = getelementptr i8, ptr %27, i64 %.idx
  %29 = load float, ptr %28, align 4, !tbaa !67
  %30 = fadd float %.01921, %29
  br label %31

31:                                               ; preds = %6, %14
  %.1 = phi float [ %30, %14 ], [ %.01921, %6 ]
  %indvars.iv.next = add nuw nsw i64 %indvars.iv, 1
  %32 = load i32, ptr %2, align 8, !tbaa !16
  %33 = sext i32 %32 to i64
  %34 = icmp slt i64 %indvars.iv.next, %33
  br i1 %34, label %6, label %._crit_edge, !llvm.loop !68

._crit_edge:                                      ; preds = %31, %1
  %.019.lcssa = phi float [ 0.000000e+00, %1 ], [ %.1, %31 ]
  ret float %.019.lcssa
}